; Function Attrs: nounwind uwtable
define void @Java_sun_java2d_x11_X11SurfaceData_initIDs(ptr noundef %0, ptr nocapture noundef readnone %1, ptr noundef %2) local_unnamed_addr #0 {
  %4 = tail call zeroext i8 @XShared_initIDs(ptr noundef %0, i8 noundef zeroext 1)
  %5 = load ptr, ptr %0, align 8
  %6 = getelementptr inbounds i8, ptr %5, i64 168
  %7 = load ptr, ptr %6, align 8
  %8 = tail call ptr %7(ptr noundef nonnull %0, ptr noundef %2) #18
  store ptr %8, ptr @xorCompClass, align 8
  ret void
}